target datalayout = "e-m:e-p270:32:32-p271:32:32-p272:64:64-i64:64-i128:128-f80:128-n8:16:32:64-S128"
target triple = "x86_64-pc-linux-gnu"

%class.SafeOpFlags = type { i8, i8, i8, i32 }
%class.Type = type { i32, ptr, i32, %"class.std::vector.0", %"class.std::vector.5", i32, i8, i8, i8, i8, i8, %"class.std::vector.10", %"class.std::vector.15" }
%"class.std::vector.0" = type { %"struct.std::_Vector_base.1" }
%"struct.std::_Vector_base.1" = type { %"struct.std::_Vector_base<unsigned int, std::allocator<unsigned int>>::_Vector_impl" }
%"struct.std::_Vector_base<unsigned int, std::allocator<unsigned int>>::_Vector_impl" = type { %"struct.std::_Vector_base<unsigned int, std::allocator<unsigned int>>::_Vector_impl_data" }
%"struct.std::_Vector_base<unsigned int, std::allocator<unsigned int>>::_Vector_impl_data" = type { ptr, ptr, ptr }
%"class.std::vector.5" = type { %"struct.std::_Vector_base.6" }
%"struct.std::_Vector_base.6" = type { %"struct.std::_Vector_base<const Type *, std::allocator<const Type *>>::_Vector_impl" }
%"struct.std::_Vector_base<const Type *, std::allocator<const Type *>>::_Vector_impl" = type { %"struct.std::_Vector_base<const Type *, std::allocator<const Type *>>::_Vector_impl_data" }
%"struct.std::_Vector_base<const Type *, std::allocator<const Type *>>::_Vector_impl_data" = type { ptr, ptr, ptr }
%"class.std::vector.10" = type { %"struct.std::_Vector_base.11" }
%"struct.std::_Vector_base.11" = type { %"struct.std::_Vector_base<CVQualifiers, std::allocator<CVQualifiers>>::_Vector_impl" }
%"struct.std::_Vector_base<CVQualifiers, std::allocator<CVQualifiers>>::_Vector_impl" = type { %"struct.std::_Vector_base<CVQualifiers, std::allocator<CVQualifiers>>::_Vector_impl_data" }
%"struct.std::_Vector_base<CVQualifiers, std::allocator<CVQualifiers>>::_Vector_impl_data" = type { ptr, ptr, ptr }
%"class.std::vector.15" = type { %"struct.std::_Vector_base.16" }
%"struct.std::_Vector_base.16" = type { %"struct.std::_Vector_base<int, std::allocator<int>>::_Vector_impl" }
%"struct.std::_Vector_base<int, std::allocator<int>>::_Vector_impl" = type { %"struct.std::_Vector_base<int, std::allocator<int>>::_Vector_impl_data" }
%"struct.std::_Vector_base<int, std::allocator<int>>::_Vector_impl_data" = type { ptr, ptr, ptr }

@_ZN5Error8r_error_E = external global i32, align 4
@_ZN11SafeOpFlagsC1Ev = dso_local unnamed_addr alias void (ptr), ptr @_ZN11SafeOpFlagsC2Ev
@_ZN11SafeOpFlagsD1Ev = dso_local unnamed_addr alias void (ptr), ptr @_ZN11SafeOpFlagsD2Ev

; Function Attrs: mustprogress nounwind uwtable
define linkonce_odr dso_local noundef zeroext i1 @_ZNK4Type8is_floatEv(ptr noundef nonnull align 8 dereferenceable(136) %0) #4 comdat align 2 {
  %2 = alloca ptr, align 8
  store ptr %0, ptr %2, align 8, !tbaa !28
  %3 = load ptr, ptr %2, align 8
  %4 = getelementptr inbounds nuw %class.Type, ptr %3, i32 0, i32 0
  %5 = load i32, ptr %4, align 8, !tbaa !32
  %6 = icmp eq i32 %5, 0
  br i1 %6, label %7, label %11

7:                                                ; preds = %1
  %8 = getelementptr inbounds nuw %class.Type, ptr %3, i32 0, i32 2
  %9 = load i32, ptr %8, align 8, !tbaa !55
  %10 = icmp eq i32 %9, 10
  br label %11

11:                                               ; preds = %7, %1
  %12 = phi i1 [ false, %1 ], [ %10, %7 ]
  ret i1 %12
}

; Function Attrs: mustprogress nounwind uwtable
define linkonce_odr dso_local noundef i32 @_ZN5Error9get_errorEv() #4 comdat align 2 {
  %1 = load i32, ptr @_ZN5Error8r_error_E, align 4, !tbaa !60
  ret i32 %1
}

; Function Attrs: mustprogress uwtable
define dso_local noundef zeroext i1 @_ZN11SafeOpFlags17return_float_typeEPK4TypeS2_S2_10eBinaryOps(ptr noundef %0, ptr noundef %1, ptr noundef %2, i32 noundef %3) #5 align 2 {
  %5 = alloca i1, align 1
  %6 = alloca ptr, align 8
  %7 = alloca ptr, align 8
  %8 = alloca ptr, align 8
  %9 = alloca i32, align 4
  store ptr %0, ptr %6, align 8, !tbaa !28
  store ptr %1, ptr %7, align 8, !tbaa !28
  store ptr %2, ptr %8, align 8, !tbaa !28
  store i32 %3, ptr %9, align 4, !tbaa !30
  %10 = call noundef zeroext i1 @_ZN9CGOptions12enable_floatEv()
  br i1 %10, label %12, label %11

11:                                               ; preds = %4
  store i1 false, ptr %5, align 1
  br label %37

12:                                               ; preds = %4
  %13 = load ptr, ptr %6, align 8, !tbaa !28
  %14 = icmp ne ptr %13, null
  br i1 %14, label %15, label %19

15:                                               ; preds = %12
  %16 = load ptr, ptr %6, align 8, !tbaa !28
  %17 = call noundef zeroext i1 @_ZNK4Type8is_floatEv(ptr noundef nonnull align 8 dereferenceable(136) %16)
  br i1 %17, label %18, label %19

18:                                               ; preds = %15
  store i1 true, ptr %5, align 1
  br label %37

19:                                               ; preds = %15, %12
  %20 = load ptr, ptr %7, align 8, !tbaa !28
  %21 = icmp ne ptr %20, null
  br i1 %21, label %22, label %25

22:                                               ; preds = %19
  %23 = load ptr, ptr %7, align 8, !tbaa !28
  %24 = call noundef zeroext i1 @_ZNK4Type8is_floatEv(ptr noundef nonnull align 8 dereferenceable(136) %23)
  br i1 %24, label %31, label %25

25:                                               ; preds = %22, %19
  %26 = load ptr, ptr %8, align 8, !tbaa !28
  %27 = icmp ne ptr %26, null
  br i1 %27, label %28, label %32

28:                                               ; preds = %25
  %29 = load ptr, ptr %8, align 8, !tbaa !28
  %30 = call noundef zeroext i1 @_ZNK4Type8is_floatEv(ptr noundef nonnull align 8 dereferenceable(136) %29)
  br i1 %30, label %31, label %32

31:                                               ; preds = %28, %22
  store i1 true, ptr %5, align 1
  br label %37

32:                                               ; preds = %28, %25
  %33 = load i32, ptr %9, align 4, !tbaa !30
  %34 = call noundef zeroext i1 @_ZN18FunctionInvocation21BinaryOpWorksForFloatE10eBinaryOps(i32 noundef %33)
  br i1 %34, label %36, label %35

35:                                               ; preds = %32
  store i1 false, ptr %5, align 1
  br label %37

36:                                               ; preds = %32
  store i1 false, ptr %5, align 1
  br label %37

37:                                               ; preds = %36, %35, %31, %18, %11
  %38 = load i1, ptr %5, align 1
  ret i1 %38
}

; Function Attrs: mustprogress uwtable
define dso_local noundef ptr @_ZN11SafeOpFlags18make_random_binaryEPK4TypeS2_S2_10SafeOpKind10eBinaryOps(ptr noundef %0, ptr noundef %1, ptr noundef %2, i32 noundef %3, i32 noundef %4) #5 align 2 personality ptr @__gxx_personality_v0 {
  %6 = alloca ptr, align 8
  %7 = alloca ptr, align 8
  %8 = alloca ptr, align 8
  %9 = alloca ptr, align 8
  %10 = alloca i32, align 4
  %11 = alloca i32, align 4
  %12 = alloca ptr, align 8
  %13 = alloca ptr, align 8
  %14 = alloca i32, align 4
  %15 = alloca i8, align 1
  %16 = alloca i32, align 4
  store ptr %0, ptr %7, align 8, !tbaa !28
  store ptr %1, ptr %8, align 8, !tbaa !28
  store ptr %2, ptr %9, align 8, !tbaa !28
  store i32 %3, ptr %10, align 4, !tbaa !58
  store i32 %4, ptr %11, align 4, !tbaa !30
  %17 = load i32, ptr %10, align 4, !tbaa !58
  %18 = call noundef i32 @_ZN9DepthSpec19depth_guard_by_typeE5dTypei(i32 noundef 39, i32 noundef %17)
  %19 = icmp ne i32 %18, 0
  br i1 %19, label %20, label %21

20:                                               ; preds = %5
  store ptr null, ptr %6, align 8
  br label %105

21:                                               ; preds = %5
  call void @llvm.lifetime.start.p0(i64 8, ptr %12) #3
  %22 = call noalias noundef nonnull ptr @_Znwm(i64 noundef 8) #17
  invoke void @_ZN11SafeOpFlagsC1Ev(ptr noundef nonnull align 4 dereferenceable(8) %22)
          to label %23 unwind label %36

23:                                               ; preds = %21
  store ptr %22, ptr %12, align 8, !tbaa !13
  call void @llvm.lifetime.start.p0(i64 1, ptr %15) #3
  %24 = load ptr, ptr %7, align 8, !tbaa !28
  %25 = load ptr, ptr %8, align 8, !tbaa !28
  %26 = load ptr, ptr %9, align 8, !tbaa !28
  %27 = load i32, ptr %11, align 4, !tbaa !30
  %28 = call noundef zeroext i1 @_ZN11SafeOpFlags17return_float_typeEPK4TypeS2_S2_10eBinaryOps(ptr noundef %24, ptr noundef %25, ptr noundef %26, i32 noundef %27)
  %29 = zext i1 %28 to i8
  store i8 %29, ptr %15, align 1, !tbaa !15
  %30 = load i8, ptr %15, align 1, !tbaa !15, !range !19, !noundef !20
  %31 = trunc i8 %30 to i1
  br i1 %31, label %32, label %43

32:                                               ; preds = %23
  %33 = load i32, ptr %10, align 4, !tbaa !58
  %34 = icmp eq i32 %33, 1
  br i1 %34, label %35, label %40

35:                                               ; preds = %32
  br label %40

36:                                               ; preds = %21
  %37 = landingpad { ptr, i32 }
          cleanup
  %38 = extractvalue { ptr, i32 } %37, 0
  store ptr %38, ptr %13, align 8
  %39 = extractvalue { ptr, i32 } %37, 1
  store i32 %39, ptr %14, align 4
  call void @_ZdlPvm(ptr noundef %22, i64 noundef 8) #18
  call void @llvm.lifetime.end.p0(i64 8, ptr %12) #3
  br label %107

40:                                               ; preds = %35, %32
  %41 = load ptr, ptr %12, align 8, !tbaa !13
  %42 = getelementptr inbounds nuw %class.SafeOpFlags, ptr %41, i32 0, i32 0
  store i8 1, ptr %42, align 4, !tbaa !21
  br label %49

43:                                               ; preds = %23
  %44 = call noundef i32 @_ZN13Probabilities8get_probE8ProbName(i32 noundef 6)
  %45 = call noundef zeroext i1 @_Z12rnd_flipcoinjPK6FilterPKNSt7__cxx1112basic_stringIcSt11char_traitsIcESaIcEEE(i32 noundef %44, ptr noundef null, ptr noundef null)
  %46 = load ptr, ptr %12, align 8, !tbaa !13
  %47 = getelementptr inbounds nuw %class.SafeOpFlags, ptr %46, i32 0, i32 0
  %48 = zext i1 %45 to i8
  store i8 %48, ptr %47, align 4, !tbaa !21
  br label %49

49:                                               ; preds = %43, %40
  %50 = call noundef i32 @_ZN5Error9get_errorEv()
  %51 = icmp ne i32 %50, 0
  br i1 %51, label %52, label %57

52:                                               ; preds = %49
  %53 = load ptr, ptr %12, align 8, !tbaa !13
  %54 = icmp eq ptr %53, null
  br i1 %54, label %56, label %55

55:                                               ; preds = %52
  call void @_ZN11SafeOpFlagsD1Ev(ptr noundef nonnull align 4 dereferenceable(8) %53) #3
  call void @_ZdlPvm(ptr noundef %53, i64 noundef 8) #18
  br label %56

56:                                               ; preds = %55, %52
  store ptr null, ptr %6, align 8
  store i32 1, ptr %16, align 4
  br label %104

57:                                               ; preds = %49
  %58 = load i32, ptr %10, align 4, !tbaa !58
  %59 = icmp eq i32 %58, 1
  br i1 %59, label %60, label %81

60:                                               ; preds = %57
  %61 = load i8, ptr %15, align 1, !tbaa !15, !range !19, !noundef !20
  %62 = trunc i8 %61 to i1
  br i1 %62, label %63, label %66

63:                                               ; preds = %60
  %64 = load ptr, ptr %12, align 8, !tbaa !13
  %65 = getelementptr inbounds nuw %class.SafeOpFlags, ptr %64, i32 0, i32 1
  store i8 1, ptr %65, align 1, !tbaa !23
  br label %72

66:                                               ; preds = %60
  %67 = call noundef i32 @_ZN13Probabilities8get_probE8ProbName(i32 noundef 6)
  %68 = call noundef zeroext i1 @_Z12rnd_flipcoinjPK6FilterPKNSt7__cxx1112basic_stringIcSt11char_traitsIcESaIcEEE(i32 noundef %67, ptr noundef null, ptr noundef null)
  %69 = load ptr, ptr %12, align 8, !tbaa !13
  %70 = getelementptr inbounds nuw %class.SafeOpFlags, ptr %69, i32 0, i32 1
  %71 = zext i1 %68 to i8
  store i8 %71, ptr %70, align 1, !tbaa !23
  br label %72

72:                                               ; preds = %66, %63
  %73 = call noundef i32 @_ZN5Error9get_errorEv()
  %74 = icmp ne i32 %73, 0
  br i1 %74, label %75, label %80

75:                                               ; preds = %72
  %76 = load ptr, ptr %12, align 8, !tbaa !13
  %77 = icmp eq ptr %76, null
  br i1 %77, label %79, label %78

78:                                               ; preds = %75
  call void @_ZN11SafeOpFlagsD1Ev(ptr noundef nonnull align 4 dereferenceable(8) %76) #3
  call void @_ZdlPvm(ptr noundef %76, i64 noundef 8) #18
  br label %79

79:                                               ; preds = %78, %75
  store ptr null, ptr %6, align 8
  store i32 1, ptr %16, align 4
  br label %104

80:                                               ; preds = %72
  br label %89

81:                                               ; preds = %57
  %82 = load ptr, ptr %12, align 8, !tbaa !13
  %83 = getelementptr inbounds nuw %class.SafeOpFlags, ptr %82, i32 0, i32 0
  %84 = load i8, ptr %83, align 4, !tbaa !21, !range !19, !noundef !20
  %85 = trunc i8 %84 to i1
  %86 = load ptr, ptr %12, align 8, !tbaa !13
  %87 = getelementptr inbounds nuw %class.SafeOpFlags, ptr %86, i32 0, i32 1
  %88 = zext i1 %85 to i8
  store i8 %88, ptr %87, align 1, !tbaa !23
  br label %89

89:                                               ; preds = %81, %80
  %90 = load ptr, ptr %12, align 8, !tbaa !13
  %91 = getelementptr inbounds nuw %class.SafeOpFlags, ptr %90, i32 0, i32 2
  store i8 1, ptr %91, align 2, !tbaa !24
  %92 = load i8, ptr %15, align 1, !tbaa !15, !range !19, !noundef !20
  %93 = trunc i8 %92 to i1
  br i1 %93, label %94, label %97

94:                                               ; preds = %89
  %95 = load ptr, ptr %12, align 8, !tbaa !13
  %96 = getelementptr inbounds nuw %class.SafeOpFlags, ptr %95, i32 0, i32 3
  store i32 4, ptr %96, align 4, !tbaa !25
  br label %102

97:                                               ; preds = %89
  %98 = call noundef ptr @_ZN13Probabilities15get_prob_filterE8ProbName(i32 noundef 91)
  %99 = call noundef i32 @_Z8rnd_uptojPK6FilterPKNSt7__cxx1112basic_stringIcSt11char_traitsIcESaIcEEE(i32 noundef 4, ptr noundef %98, ptr noundef null)
  %100 = load ptr, ptr %12, align 8, !tbaa !13
  %101 = getelementptr inbounds nuw %class.SafeOpFlags, ptr %100, i32 0, i32 3
  store i32 %99, ptr %101, align 4, !tbaa !25
  br label %102

102:                                              ; preds = %97, %94
  %103 = load ptr, ptr %12, align 8, !tbaa !13
  store ptr %103, ptr %6, align 8
  store i32 1, ptr %16, align 4
  br label %104

104:                                              ; preds = %102, %79, %56
  call void @llvm.lifetime.end.p0(i64 1, ptr %15) #3
  call void @llvm.lifetime.end.p0(i64 8, ptr %12) #3
  br label %105

105:                                              ; preds = %104, %20
  %106 = load ptr, ptr %6, align 8
  ret ptr %106

107:                                              ; preds = %36
  %108 = load ptr, ptr %13, align 8
  %109 = load i32, ptr %14, align 4
  %110 = insertvalue { ptr, i32 } poison, ptr %108, 0
  %111 = insertvalue { ptr, i32 } %110, i32 %109, 1
  resume { ptr, i32 } %111
}