; Function Attrs: mustprogress uwtable
define dso_local noundef ptr @_ZN11SafeOpFlags18make_random_binaryEPK4TypeS2_S2_10SafeOpKind10eBinaryOps(ptr noundef readonly captures(address_is_null) %0, ptr noundef readonly captures(address_is_null) %1, ptr noundef readonly captures(address_is_null) %2, i32 noundef %3, i32 noundef %4) local_unnamed_addr #7 align 2 personality ptr @__gxx_personality_v0 {
  %6 = tail call noundef i32 @_ZN9DepthSpec19depth_guard_by_typeE5dTypei(i32 noundef 39, i32 noundef %3)
  %.not = icmp eq i32 %6, 0
  br i1 %.not, label %7, label %63

7:                                                ; preds = %5
  %8 = tail call noalias noundef nonnull dereferenceable(8) ptr @_Znwm(i64 noundef 8) #22
  %9 = tail call noundef zeroext i1 @_ZN9CGOptions12enable_floatEv()
  br i1 %9, label %10, label %_ZN11SafeOpFlags17return_float_typeEPK4TypeS2_S2_10eBinaryOps.exit

10:                                               ; preds = %7
  %.not.i = icmp eq ptr %0, null
  br i1 %.not.i, label %18, label %11

11:                                               ; preds = %10
  %12 = load i32, ptr %0, align 8, !tbaa !30
  %13 = icmp eq i32 %12, 0
  %14 = getelementptr inbounds nuw i8, ptr %0, i64 16
  %15 = load i32, ptr %14, align 8
  %16 = icmp eq i32 %15, 10
  %17 = select i1 %13, i1 %16, i1 false
  br i1 %17, label %_ZN11SafeOpFlags17return_float_typeEPK4TypeS2_S2_10eBinaryOps.exit.thread, label %18

18:                                               ; preds = %11, %10
  %.not10.i = icmp eq ptr %1, null
  br i1 %.not10.i, label %26, label %19

19:                                               ; preds = %18
  %20 = load i32, ptr %1, align 8, !tbaa !30
  %21 = icmp eq i32 %20, 0
  %22 = getelementptr inbounds nuw i8, ptr %1, i64 16
  %23 = load i32, ptr %22, align 8
  %24 = icmp eq i32 %23, 10
  %25 = select i1 %21, i1 %24, i1 false
  br i1 %25, label %_ZN11SafeOpFlags17return_float_typeEPK4TypeS2_S2_10eBinaryOps.exit.thread, label %26

26:                                               ; preds = %19, %18
  %.not11.i = icmp eq ptr %2, null
  br i1 %.not11.i, label %34, label %27

27:                                               ; preds = %26
  %28 = load i32, ptr %2, align 8, !tbaa !30
  %29 = icmp eq i32 %28, 0
  %30 = getelementptr inbounds nuw i8, ptr %2, i64 16
  %31 = load i32, ptr %30, align 8
  %32 = icmp eq i32 %31, 10
  %33 = select i1 %29, i1 %32, i1 false
  br i1 %33, label %_ZN11SafeOpFlags17return_float_typeEPK4TypeS2_S2_10eBinaryOps.exit.thread, label %34

34:                                               ; preds = %27, %26
  %35 = tail call noundef zeroext i1 @_ZN18FunctionInvocation21BinaryOpWorksForFloatE10eBinaryOps(i32 noundef %4)
  br label %_ZN11SafeOpFlags17return_float_typeEPK4TypeS2_S2_10eBinaryOps.exit

_ZN11SafeOpFlags17return_float_typeEPK4TypeS2_S2_10eBinaryOps.exit: ; preds = %34, %7
  %36 = tail call noundef i32 @_ZN13Probabilities8get_probE8ProbName(i32 noundef 6)
  %37 = tail call noundef zeroext i1 @_Z12rnd_flipcoinjPK6FilterPKNSt7__cxx1112basic_stringIcSt11char_traitsIcESaIcEEE(i32 noundef %36, ptr noundef null, ptr noundef null)
  %38 = zext i1 %37 to i8
  br label %_ZN11SafeOpFlags17return_float_typeEPK4TypeS2_S2_10eBinaryOps.exit.thread

_ZN11SafeOpFlags17return_float_typeEPK4TypeS2_S2_10eBinaryOps.exit.thread: ; preds = %19, %27, %11, %_ZN11SafeOpFlags17return_float_typeEPK4TypeS2_S2_10eBinaryOps.exit
  %.0.i27 = phi i1 [ false, %_ZN11SafeOpFlags17return_float_typeEPK4TypeS2_S2_10eBinaryOps.exit ], [ true, %11 ], [ true, %27 ], [ true, %19 ]
  %storemerge = phi i8 [ %38, %_ZN11SafeOpFlags17return_float_typeEPK4TypeS2_S2_10eBinaryOps.exit ], [ 1, %11 ], [ 1, %27 ], [ 1, %19 ]
  store i8 %storemerge, ptr %8, align 4, !tbaa !21
  %39 = load i32, ptr @_ZN5Error8r_error_E, align 4, !tbaa !55
  %.not24 = icmp eq i32 %39, 0
  br i1 %.not24, label %41, label %40

40:                                               ; preds = %_ZN11SafeOpFlags17return_float_typeEPK4TypeS2_S2_10eBinaryOps.exit.thread
  tail call void @_ZdlPvm(ptr noundef nonnull %8, i64 noundef 8) #21
  br label %63

41:                                               ; preds = %_ZN11SafeOpFlags17return_float_typeEPK4TypeS2_S2_10eBinaryOps.exit.thread
  %42 = icmp eq i32 %3, 1
  br i1 %42, label %43, label %54

43:                                               ; preds = %41
  br i1 %.0.i27, label %.thread30, label %46

.thread30:                                        ; preds = %43
  %44 = getelementptr inbounds nuw i8, ptr %8, i64 1
  store i8 1, ptr %44, align 1, !tbaa !25
  %45 = getelementptr inbounds nuw i8, ptr %8, i64 2
  store i8 1, ptr %45, align 2, !tbaa !26
  br label %57

46:                                               ; preds = %43
  %47 = tail call noundef i32 @_ZN13Probabilities8get_probE8ProbName(i32 noundef 6)
  %48 = tail call noundef zeroext i1 @_Z12rnd_flipcoinjPK6FilterPKNSt7__cxx1112basic_stringIcSt11char_traitsIcESaIcEEE(i32 noundef %47, ptr noundef null, ptr noundef null)
  %49 = zext i1 %48 to i8
  %.pre = load i32, ptr @_ZN5Error8r_error_E, align 4, !tbaa !55
  %50 = icmp eq i32 %.pre, 0
  %51 = getelementptr inbounds nuw i8, ptr %8, i64 1
  store i8 %49, ptr %51, align 1, !tbaa !25
  br i1 %50, label %.thread31, label %53

.thread31:                                        ; preds = %46
  %52 = getelementptr inbounds nuw i8, ptr %8, i64 2
  store i8 1, ptr %52, align 2, !tbaa !26
  br label %59

53:                                               ; preds = %46
  tail call void @_ZdlPvm(ptr noundef nonnull %8, i64 noundef 8) #21
  br label %63

54:                                               ; preds = %41
  %55 = getelementptr inbounds nuw i8, ptr %8, i64 1
  store i8 %storemerge, ptr %55, align 1, !tbaa !25
  %56 = getelementptr inbounds nuw i8, ptr %8, i64 2
  store i8 1, ptr %56, align 2, !tbaa !26
  br i1 %.0.i27, label %57, label %59

57:                                               ; preds = %.thread30, %54
  %58 = getelementptr inbounds nuw i8, ptr %8, i64 4
  store i32 4, ptr %58, align 4, !tbaa !27
  br label %63

59:                                               ; preds = %.thread31, %54
  %60 = tail call noundef ptr @_ZN13Probabilities15get_prob_filterE8ProbName(i32 noundef 91)
  %61 = tail call noundef i32 @_Z8rnd_uptojPK6FilterPKNSt7__cxx1112basic_stringIcSt11char_traitsIcESaIcEEE(i32 noundef 4, ptr noundef %60, ptr noundef null)
  %62 = getelementptr inbounds nuw i8, ptr %8, i64 4
  store i32 %61, ptr %62, align 4, !tbaa !27
  br label %63

63:                                               ; preds = %40, %53, %59, %57, %5
  %.0 = phi ptr [ null, %5 ], [ null, %40 ], [ null, %53 ], [ %8, %59 ], [ %8, %57 ]
  ret ptr %.0
}